target datalayout = "e-m:e-p270:32:32-p271:32:32-p272:64:64-i64:64-i128:128-f80:128-n8:16:32:64-S128"
target triple = "x86_64-pc-linux-gnu"

%"class.std::__cxx11::basic_string" = type { %"struct.std::__cxx11::basic_string<char>::_Alloc_hider", i64, %union.anon }
%"struct.std::__cxx11::basic_string<char>::_Alloc_hider" = type { ptr }
%union.anon = type { i64, [8 x i8] }
%"class.folly::SSLContext" = type { ptr, ptr, i32, i32, i32, i8, %"class.std::__cxx11::basic_string", %"class.std::shared_ptr", %"class.std::function", %"class.std::vector", ptr, %"class.std::unique_ptr", %"class.std::unique_ptr.5", %"class.std::vector.13", %"class.std::vector.18", %"class.std::discrete_distribution", i8, %"class.std::__cxx11::basic_string", %"class.std::unique_ptr.28" }
%"class.std::shared_ptr" = type { %"class.std::__shared_ptr" }
%"class.std::__shared_ptr" = type { ptr, %"class.std::__shared_count" }
%"class.std::__shared_count" = type { ptr }
%"class.std::function" = type { %"class.std::_Function_base", ptr }
%"class.std::_Function_base" = type { %"union.std::_Any_data", ptr }
%"union.std::_Any_data" = type { %"union.std::_Nocopy_types" }
%"union.std::_Nocopy_types" = type { { i64, i64 } }
%"class.std::vector" = type { %"struct.std::_Vector_base" }
%"struct.std::_Vector_base" = type { %"struct.std::_Vector_base<std::function<void (ssl_st *)>, std::allocator<std::function<void (ssl_st *)>>>::_Vector_impl" }
%"struct.std::_Vector_base<std::function<void (ssl_st *)>, std::allocator<std::function<void (ssl_st *)>>>::_Vector_impl" = type { %"struct.std::_Vector_base<std::function<void (ssl_st *)>, std::allocator<std::function<void (ssl_st *)>>>::_Vector_impl_data" }
%"struct.std::_Vector_base<std::function<void (ssl_st *)>, std::allocator<std::function<void (ssl_st *)>>>::_Vector_impl_data" = type { ptr, ptr, ptr }
%"class.std::unique_ptr" = type { %"struct.std::__uniq_ptr_data" }
%"struct.std::__uniq_ptr_data" = type { %"class.std::__uniq_ptr_impl" }
%"class.std::__uniq_ptr_impl" = type { %"class.std::tuple" }
%"class.std::tuple" = type { %"struct.std::_Tuple_impl" }
%"struct.std::_Tuple_impl" = type { %"struct.std::_Head_base.4" }
%"struct.std::_Head_base.4" = type { ptr }
%"class.std::unique_ptr.5" = type { %"struct.std::__uniq_ptr_data.6" }
%"struct.std::__uniq_ptr_data.6" = type { %"class.std::__uniq_ptr_impl.7" }
%"class.std::__uniq_ptr_impl.7" = type { %"class.std::tuple.8" }
%"class.std::tuple.8" = type { %"struct.std::_Tuple_impl.9" }
%"struct.std::_Tuple_impl.9" = type { %"struct.std::_Head_base.12" }
%"struct.std::_Head_base.12" = type { ptr }
%"class.std::vector.13" = type { %"struct.std::_Vector_base.14" }
%"struct.std::_Vector_base.14" = type { %"struct.std::_Vector_base<folly::SSLContext::AdvertisedNextProtocolsItem, std::allocator<folly::SSLContext::AdvertisedNextProtocolsItem>>::_Vector_impl" }
%"struct.std::_Vector_base<folly::SSLContext::AdvertisedNextProtocolsItem, std::allocator<folly::SSLContext::AdvertisedNextProtocolsItem>>::_Vector_impl" = type { %"struct.std::_Vector_base<folly::SSLContext::AdvertisedNextProtocolsItem, std::allocator<folly::SSLContext::AdvertisedNextProtocolsItem>>::_Vector_impl_data" }
%"struct.std::_Vector_base<folly::SSLContext::AdvertisedNextProtocolsItem, std::allocator<folly::SSLContext::AdvertisedNextProtocolsItem>>::_Vector_impl_data" = type { ptr, ptr, ptr }
%"class.std::vector.18" = type { %"struct.std::_Vector_base.19" }
%"struct.std::_Vector_base.19" = type { %"struct.std::_Vector_base<int, std::allocator<int>>::_Vector_impl" }
%"struct.std::_Vector_base<int, std::allocator<int>>::_Vector_impl" = type { %"struct.std::_Vector_base<int, std::allocator<int>>::_Vector_impl_data" }
%"struct.std::_Vector_base<int, std::allocator<int>>::_Vector_impl_data" = type { ptr, ptr, ptr }
%"class.std::discrete_distribution" = type { %"struct.std::discrete_distribution<>::param_type" }
%"struct.std::discrete_distribution<>::param_type" = type { %"class.std::vector.23", %"class.std::vector.23" }
%"class.std::vector.23" = type { %"struct.std::_Vector_base.24" }
%"struct.std::_Vector_base.24" = type { %"struct.std::_Vector_base<double, std::allocator<double>>::_Vector_impl" }
%"struct.std::_Vector_base<double, std::allocator<double>>::_Vector_impl" = type { %"struct.std::_Vector_base<double, std::allocator<double>>::_Vector_impl_data" }
%"struct.std::_Vector_base<double, std::allocator<double>>::_Vector_impl_data" = type { ptr, ptr, ptr }
%"class.std::unique_ptr.28" = type { %"struct.std::__uniq_ptr_data.29" }
%"struct.std::__uniq_ptr_data.29" = type { %"class.std::__uniq_ptr_impl.30" }
%"class.std::__uniq_ptr_impl.30" = type { %"class.std::tuple.31" }
%"class.std::tuple.31" = type { %"struct.std::_Tuple_impl.32" }
%"struct.std::_Tuple_impl.32" = type { %"struct.std::_Head_base.35" }
%"struct.std::_Head_base.35" = type { ptr }

; Function Attrs: mustprogress nounwind uwtable
define available_externally noundef ptr @_ZNKSt7__cxx1112basic_stringIcSt11char_traitsIcESaIcEE7_M_dataEv(ptr noundef nonnull align 8 dereferenceable(32) %0) #1 align 2 {
  %2 = alloca ptr, align 8
  store ptr %0, ptr %2, align 8, !tbaa !12
  %3 = load ptr, ptr %2, align 8
  %4 = getelementptr inbounds nuw %"class.std::__cxx11::basic_string", ptr %3, i32 0, i32 0
  %5 = getelementptr inbounds nuw %"struct.std::__cxx11::basic_string<char>::_Alloc_hider", ptr %4, i32 0, i32 0
  %6 = load ptr, ptr %5, align 8, !tbaa !166
  ret ptr %6
}

; Function Attrs: inlinehint mustprogress nounwind uwtable
define linkonce_odr noundef nonnull align 4 dereferenceable(4) ptr @_ZSt3minIjERKT_S2_S2_(ptr noundef nonnull align 4 dereferenceable(4) %0, ptr noundef nonnull align 4 dereferenceable(4) %1) #6 comdat {
  %3 = alloca ptr, align 8
  %4 = alloca ptr, align 8
  %5 = alloca ptr, align 8
  store ptr %0, ptr %4, align 8, !tbaa !137
  store ptr %1, ptr %5, align 8, !tbaa !137
  %6 = load ptr, ptr %5, align 8, !tbaa !137
  %7 = load i32, ptr %6, align 4, !tbaa !77
  %8 = load ptr, ptr %4, align 8, !tbaa !137
  %9 = load i32, ptr %8, align 4, !tbaa !77
  %10 = icmp ult i32 %7, %9
  br i1 %10, label %11, label %13

11:                                               ; preds = %2
  %12 = load ptr, ptr %5, align 8, !tbaa !137
  store ptr %12, ptr %3, align 8
  br label %15

13:                                               ; preds = %2
  %14 = load ptr, ptr %4, align 8, !tbaa !137
  store ptr %14, ptr %3, align 8
  br label %15

15:                                               ; preds = %13, %11
  %16 = load ptr, ptr %3, align 8
  ret ptr %16
}

; Function Attrs: mustprogress nounwind uwtable
define available_externally noundef i64 @_ZNKSt7__cxx1112basic_stringIcSt11char_traitsIcESaIcEE6lengthEv(ptr noundef nonnull align 8 dereferenceable(32) %0) #1 align 2 {
  %2 = alloca ptr, align 8
  store ptr %0, ptr %2, align 8, !tbaa !12
  %3 = load ptr, ptr %2, align 8
  %4 = getelementptr inbounds nuw %"class.std::__cxx11::basic_string", ptr %3, i32 0, i32 1
  %5 = load i64, ptr %4, align 8, !tbaa !165
  ret i64 %5
}

; Function Attrs: mustprogress nounwind uwtable
define available_externally noundef ptr @_ZNKSt7__cxx1112basic_stringIcSt11char_traitsIcESaIcEE4dataEv(ptr noundef nonnull align 8 dereferenceable(32) %0) #1 align 2 {
  %2 = alloca ptr, align 8
  store ptr %0, ptr %2, align 8, !tbaa !12
  %3 = load ptr, ptr %2, align 8
  %4 = call noundef ptr @_ZNKSt7__cxx1112basic_stringIcSt11char_traitsIcESaIcEE7_M_dataEv(ptr noundef nonnull align 8 dereferenceable(32) %3)
  ret ptr %4
}

; Function Attrs: mustprogress uwtable
define void @_ZN5folly10SSLContext22setSessionCacheContextERKNSt7__cxx1112basic_stringIcSt11char_traitsIcESaIcEEE(ptr noundef nonnull align 8 dereferenceable(304) %0, ptr noundef nonnull align 8 dereferenceable(32) %1) #2 align 2 {
  %3 = alloca ptr, align 8
  %4 = alloca ptr, align 8
  %5 = alloca i32, align 4
  %6 = alloca i32, align 4
  store ptr %0, ptr %3, align 8, !tbaa !7
  store ptr %1, ptr %4, align 8, !tbaa !12
  %7 = load ptr, ptr %3, align 8
  %8 = getelementptr inbounds nuw %"class.folly::SSLContext", ptr %7, i32 0, i32 1
  %9 = load ptr, ptr %8, align 8, !tbaa !16
  %10 = load ptr, ptr %4, align 8, !tbaa !12
  %11 = call noundef ptr @_ZNKSt7__cxx1112basic_stringIcSt11char_traitsIcESaIcEE4dataEv(ptr noundef nonnull align 8 dereferenceable(32) %10) #26
  call void @llvm.lifetime.start.p0(i64 4, ptr %5) #26
  %12 = load ptr, ptr %4, align 8, !tbaa !12
  %13 = call noundef i64 @_ZNKSt7__cxx1112basic_stringIcSt11char_traitsIcESaIcEE6lengthEv(ptr noundef nonnull align 8 dereferenceable(32) %12) #26
  %14 = trunc i64 %13 to i32
  store i32 %14, ptr %5, align 4, !tbaa !77
  call void @llvm.lifetime.start.p0(i64 4, ptr %6) #26
  store i32 32, ptr %6, align 4, !tbaa !77
  %15 = call noundef nonnull align 4 dereferenceable(4) ptr @_ZSt3minIjERKT_S2_S2_(ptr noundef nonnull align 4 dereferenceable(4) %5, ptr noundef nonnull align 4 dereferenceable(4) %6)
  %16 = load i32, ptr %15, align 4, !tbaa !77
  %17 = call i32 @SSL_CTX_set_session_id_context(ptr noundef %9, ptr noundef %11, i32 noundef %16)
  call void @llvm.lifetime.end.p0(i64 4, ptr %6) #26
  call void @llvm.lifetime.end.p0(i64 4, ptr %5) #26
  ret void
}