; Function Attrs: mustprogress uwtable
define void @_ZN5folly10SSLContext22setSessionCacheContextERKNSt7__cxx1112basic_stringIcSt11char_traitsIcESaIcEEE(ptr noundef nonnull readonly align 8 captures(none) dereferenceable(304) %0, ptr noundef nonnull readonly align 8 captures(none) dereferenceable(32) %1) local_unnamed_addr #2 align 2 {
  %3 = getelementptr inbounds nuw i8, ptr %0, i64 8
  %4 = load ptr, ptr %3, align 8, !tbaa !10
  %5 = load ptr, ptr %1, align 8, !tbaa !73
  %6 = getelementptr inbounds nuw i8, ptr %1, i64 8
  %7 = load i64, ptr %6, align 8, !tbaa !79
  %8 = trunc i64 %7 to i32
  %.sroa.speculated = tail call i32 @llvm.umin.i32(i32 %8, i32 32)
  %9 = tail call i32 @SSL_CTX_set_session_id_context(ptr noundef %4, ptr noundef %5, i32 noundef %.sroa.speculated)
  ret void
}